target datalayout = "e-m:e-p270:32:32-p271:32:32-p272:64:64-i64:64-i128:128-f80:128-n8:16:32:64-S128"
target triple = "x86_64-pc-linux-gnu"

%struct.AVRational = type { i32, i32 }
%struct.AVPacket = type { ptr, i64, i64, ptr, i32, i32, i32, ptr, i32, i64, i64, ptr, ptr, %struct.AVRational }
%struct.AVBufferRef = type { ptr, ptr, i64 }

; Function Attrs: nounwind uwtable
define internal i32 @packet_alloc(ptr noundef %0, i32 noundef %1) #0 {
  %3 = alloca i32, align 4
  %4 = alloca ptr, align 8
  %5 = alloca i32, align 4
  %6 = alloca i32, align 4
  %7 = alloca i32, align 4
  store ptr %0, ptr %4, align 8, !tbaa !40
  store i32 %1, ptr %5, align 4, !tbaa !28
  call void @llvm.lifetime.start.p0(i64 4, ptr %6) #9
  %8 = load i32, ptr %5, align 4, !tbaa !28
  %9 = icmp slt i32 %8, 0
  br i1 %9, label %13, label %10

10:                                               ; preds = %2
  %11 = load i32, ptr %5, align 4, !tbaa !28
  %12 = icmp sge i32 %11, 2147483583
  br i1 %12, label %13, label %14

13:                                               ; preds = %10, %2
  store i32 -22, ptr %3, align 4
  store i32 1, ptr %7, align 4
  br label %32

14:                                               ; preds = %10
  %15 = load ptr, ptr %4, align 8, !tbaa !40
  %16 = load i32, ptr %5, align 4, !tbaa !28
  %17 = add nsw i32 %16, 64
  %18 = sext i32 %17 to i64
  %19 = call i32 @av_buffer_realloc(ptr noundef %15, i64 noundef %18)
  store i32 %19, ptr %6, align 4, !tbaa !28
  %20 = load i32, ptr %6, align 4, !tbaa !28
  %21 = icmp slt i32 %20, 0
  br i1 %21, label %22, label %24

22:                                               ; preds = %14
  %23 = load i32, ptr %6, align 4, !tbaa !28
  store i32 %23, ptr %3, align 4
  store i32 1, ptr %7, align 4
  br label %32

24:                                               ; preds = %14
  %25 = load ptr, ptr %4, align 8, !tbaa !40
  %26 = load ptr, ptr %25, align 8, !tbaa !34
  %27 = getelementptr inbounds nuw %struct.AVBufferRef, ptr %26, i32 0, i32 1
  %28 = load ptr, ptr %27, align 8, !tbaa !35
  %29 = load i32, ptr %5, align 4, !tbaa !28
  %30 = sext i32 %29 to i64
  %31 = getelementptr inbounds i8, ptr %28, i64 %30
  call void @llvm.memset.p0.i64(ptr align 1 %31, i8 0, i64 64, i1 false)
  store i32 0, ptr %3, align 4
  store i32 1, ptr %7, align 4
  br label %32

32:                                               ; preds = %24, %22, %13
  call void @llvm.lifetime.end.p0(i64 4, ptr %6) #9
  %33 = load i32, ptr %3, align 4
  ret i32 %33
}

; Function Attrs: nounwind uwtable
define i32 @av_packet_make_writable(ptr noundef %0) #0 {
  %2 = alloca i32, align 4
  %3 = alloca ptr, align 8
  %4 = alloca ptr, align 8
  %5 = alloca i32, align 4
  %6 = alloca i32, align 4
  store ptr %0, ptr %3, align 8, !tbaa !4
  call void @llvm.lifetime.start.p0(i64 8, ptr %4) #9
  store ptr null, ptr %4, align 8, !tbaa !34
  call void @llvm.lifetime.start.p0(i64 4, ptr %5) #9
  %7 = load ptr, ptr %3, align 8, !tbaa !4
  %8 = getelementptr inbounds nuw %struct.AVPacket, ptr %7, i32 0, i32 0
  %9 = load ptr, ptr %8, align 8, !tbaa !22
  %10 = icmp ne ptr %9, null
  br i1 %10, label %11, label %18

11:                                               ; preds = %1
  %12 = load ptr, ptr %3, align 8, !tbaa !4
  %13 = getelementptr inbounds nuw %struct.AVPacket, ptr %12, i32 0, i32 0
  %14 = load ptr, ptr %13, align 8, !tbaa !22
  %15 = call i32 @av_buffer_is_writable(ptr noundef %14)
  %16 = icmp ne i32 %15, 0
  br i1 %16, label %17, label %18

17:                                               ; preds = %11
  store i32 0, ptr %2, align 4
  store i32 1, ptr %6, align 4
  br label %54

18:                                               ; preds = %11, %1
  %19 = load ptr, ptr %3, align 8, !tbaa !4
  %20 = getelementptr inbounds nuw %struct.AVPacket, ptr %19, i32 0, i32 4
  %21 = load i32, ptr %20, align 8, !tbaa !39
  %22 = call i32 @packet_alloc(ptr noundef %4, i32 noundef %21)
  store i32 %22, ptr %5, align 4, !tbaa !28
  %23 = load i32, ptr %5, align 4, !tbaa !28
  %24 = icmp slt i32 %23, 0
  br i1 %24, label %25, label %27

25:                                               ; preds = %18
  %26 = load i32, ptr %5, align 4, !tbaa !28
  store i32 %26, ptr %2, align 4
  store i32 1, ptr %6, align 4
  br label %54

27:                                               ; preds = %18
  %28 = load ptr, ptr %3, align 8, !tbaa !4
  %29 = getelementptr inbounds nuw %struct.AVPacket, ptr %28, i32 0, i32 4
  %30 = load i32, ptr %29, align 8, !tbaa !39
  %31 = icmp ne i32 %30, 0
  br i1 %31, label %32, label %43

32:                                               ; preds = %27
  %33 = load ptr, ptr %4, align 8, !tbaa !34
  %34 = getelementptr inbounds nuw %struct.AVBufferRef, ptr %33, i32 0, i32 1
  %35 = load ptr, ptr %34, align 8, !tbaa !35
  %36 = load ptr, ptr %3, align 8, !tbaa !4
  %37 = getelementptr inbounds nuw %struct.AVPacket, ptr %36, i32 0, i32 3
  %38 = load ptr, ptr %37, align 8, !tbaa !38
  %39 = load ptr, ptr %3, align 8, !tbaa !4
  %40 = getelementptr inbounds nuw %struct.AVPacket, ptr %39, i32 0, i32 4
  %41 = load i32, ptr %40, align 8, !tbaa !39
  %42 = sext i32 %41 to i64
  call void @llvm.memcpy.p0.p0.i64(ptr align 1 %35, ptr align 1 %38, i64 %42, i1 false)
  br label %43

43:                                               ; preds = %32, %27
  %44 = load ptr, ptr %3, align 8, !tbaa !4
  %45 = getelementptr inbounds nuw %struct.AVPacket, ptr %44, i32 0, i32 0
  call void @av_buffer_unref(ptr noundef %45)
  %46 = load ptr, ptr %4, align 8, !tbaa !34
  %47 = load ptr, ptr %3, align 8, !tbaa !4
  %48 = getelementptr inbounds nuw %struct.AVPacket, ptr %47, i32 0, i32 0
  store ptr %46, ptr %48, align 8, !tbaa !22
  %49 = load ptr, ptr %4, align 8, !tbaa !34
  %50 = getelementptr inbounds nuw %struct.AVBufferRef, ptr %49, i32 0, i32 1
  %51 = load ptr, ptr %50, align 8, !tbaa !35
  %52 = load ptr, ptr %3, align 8, !tbaa !4
  %53 = getelementptr inbounds nuw %struct.AVPacket, ptr %52, i32 0, i32 3
  store ptr %51, ptr %53, align 8, !tbaa !38
  store i32 0, ptr %2, align 4
  store i32 1, ptr %6, align 4
  br label %54

54:                                               ; preds = %43, %25, %17
  call void @llvm.lifetime.end.p0(i64 4, ptr %5) #9
  call void @llvm.lifetime.end.p0(i64 8, ptr %4) #9
  %55 = load i32, ptr %2, align 4
  ret i32 %55
}