; Function Attrs: nounwind uwtable
define range(i32 -2147483648, 1) i32 @av_packet_make_writable(ptr noundef %0) local_unnamed_addr #3 {
  %2 = alloca ptr, align 8
  call void @llvm.lifetime.start.p0(i64 8, ptr nonnull %2) #16
  store ptr null, ptr %2, align 8, !tbaa !27
  %3 = load ptr, ptr %0, align 8, !tbaa !20
  %.not = icmp eq ptr %3, null
  br i1 %.not, label %6, label %4

4:                                                ; preds = %1
  %5 = tail call i32 @av_buffer_is_writable(ptr noundef nonnull %3) #16
  %.not14 = icmp eq i32 %5, 0
  br i1 %.not14, label %6, label %packet_alloc.exit.thread

6:                                                ; preds = %4, %1
  %7 = getelementptr inbounds nuw i8, ptr %0, i64 32
  %8 = load i32, ptr %7, align 8, !tbaa !32
  %or.cond.i = icmp ugt i32 %8, 2147483582
  br i1 %or.cond.i, label %packet_alloc.exit.thread, label %9

9:                                                ; preds = %6
  %10 = add nuw nsw i32 %8, 64
  %11 = zext nneg i32 %10 to i64
  %12 = call i32 @av_buffer_realloc(ptr noundef nonnull %2, i64 noundef %11) #16
  %13 = icmp slt i32 %12, 0
  br i1 %13, label %packet_alloc.exit.thread, label %14

14:                                               ; preds = %9
  %15 = load ptr, ptr %2, align 8, !tbaa !27
  %16 = getelementptr inbounds nuw i8, ptr %15, i64 8
  %17 = load ptr, ptr %16, align 8, !tbaa !28
  %18 = zext nneg i32 %8 to i64
  %19 = getelementptr inbounds nuw i8, ptr %17, i64 %18
  call void @llvm.memset.p0.i64(ptr noundef nonnull align 1 dereferenceable(64) %19, i8 0, i64 64, i1 false)
  %20 = load i32, ptr %7, align 8, !tbaa !32
  %.not15 = icmp eq i32 %20, 0
  br i1 %.not15, label %26, label %21

21:                                               ; preds = %14
  %22 = load ptr, ptr %16, align 8, !tbaa !28
  %23 = getelementptr inbounds nuw i8, ptr %0, i64 24
  %24 = load ptr, ptr %23, align 8, !tbaa !31
  %25 = sext i32 %20 to i64
  call void @llvm.memcpy.p0.p0.i64(ptr align 1 %22, ptr align 1 %24, i64 %25, i1 false)
  br label %26

26:                                               ; preds = %21, %14
  call void @av_buffer_unref(ptr noundef nonnull %0) #16
  %27 = load ptr, ptr %2, align 8, !tbaa !27
  store ptr %27, ptr %0, align 8, !tbaa !20
  %28 = getelementptr inbounds nuw i8, ptr %27, i64 8
  %29 = load ptr, ptr %28, align 8, !tbaa !28
  %30 = getelementptr inbounds nuw i8, ptr %0, i64 24
  store ptr %29, ptr %30, align 8, !tbaa !31
  br label %packet_alloc.exit.thread

packet_alloc.exit.thread:                         ; preds = %9, %6, %4, %26
  %.0 = phi i32 [ 0, %26 ], [ 0, %4 ], [ %12, %9 ], [ -22, %6 ]
  call void @llvm.lifetime.end.p0(i64 8, ptr nonnull %2) #16
  ret i32 %.0
}